; Function Attrs: mustprogress nofree nounwind willreturn memory(read) uwtable
define hidden noundef ptr @_ZNK7nanogui6Widget6screenEv(ptr noundef nonnull readonly align 8 dereferenceable(140) %0) local_unnamed_addr #10 align 2 {
  br label %2

2:                                                ; preds = %4, %1
  %.0710.i = phi ptr [ %0, %1 ], [ %6, %4 ]
  %3 = tail call ptr @__dynamic_cast(ptr nonnull %.0710.i, ptr nonnull @_ZTIN7nanogui6WidgetE, ptr nonnull @_ZTIN7nanogui6ScreenE, i64 0) #18
  %.not9.i = icmp eq ptr %3, null
  br i1 %.not9.i, label %4, label %_ZN7nanogui6Widget6screenEv.exit

4:                                                ; preds = %2
  %5 = getelementptr inbounds i8, ptr %.0710.i, i64 16
  %6 = load ptr, ptr %5, align 8
  %.not.i = icmp eq ptr %6, null
  br i1 %.not.i, label %_ZN7nanogui6Widget6screenEv.exit, label %2, !llvm.loop !46

_ZN7nanogui6Widget6screenEv.exit:                 ; preds = %2, %4
  ret ptr %3
}